; Function Attrs: mustprogress uwtable
define void @_ZNK29colvarbias_restraint_harmonic16get_state_paramsB5cxx11Ev(ptr dead_on_unwind noalias writable sret(%"class.std::__cxx11::basic_string") align 8 %0, ptr noundef nonnull align 8 dereferenceable(144) %1) unnamed_addr #4 align 2 personality ptr @__gxx_personality_v0 {
  %3 = alloca %"class.std::__cxx11::basic_string", align 8
  %4 = alloca %"class.std::__cxx11::basic_string", align 8
  %5 = alloca %"class.std::__cxx11::basic_string", align 8
  %6 = alloca %"class.std::__cxx11::basic_string", align 8
  %7 = alloca %"class.std::__cxx11::basic_string", align 8
  %8 = alloca %"class.std::__cxx11::basic_string", align 8
  %9 = load ptr, ptr %1, align 8
  %10 = getelementptr i8, ptr %9, i64 -160
  %11 = load i64, ptr %10, align 8
  %12 = getelementptr inbounds i8, ptr %1, i64 %11
  %13 = load ptr, ptr %12, align 8, !noalias !53
  %14 = getelementptr i8, ptr %13, i64 -24
  %15 = load i64, ptr %14, align 8, !noalias !53
  %16 = getelementptr inbounds i8, ptr %12, i64 %15
  call void @_ZNK10colvarbias16get_state_paramsB5cxx11Ev(ptr dead_on_unwind nonnull writable sret(%"class.std::__cxx11::basic_string") align 8 %5, ptr noundef nonnull align 8 dereferenceable(312) %16)
  %17 = load ptr, ptr %1, align 8
  %18 = getelementptr i8, ptr %17, i64 -168
  %19 = load i64, ptr %18, align 8
  %20 = getelementptr inbounds i8, ptr %1, i64 %19
  invoke void @_ZNK27colvarbias_restraint_moving16get_state_paramsB5cxx11Ev(ptr dead_on_unwind nonnull writable sret(%"class.std::__cxx11::basic_string") align 8 %6, ptr noundef nonnull align 8 dereferenceable(72) %20)
          to label %21 unwind label %32

21:                                               ; preds = %2
  invoke void @_ZNSt7__cxx1112basic_stringIcSt11char_traitsIcESaIcEEC1ERKS4_(ptr noundef nonnull align 8 dereferenceable(32) %4, ptr noundef nonnull align 8 dereferenceable(32) %5)
          to label %.noexc unwind label %34

.noexc:                                           ; preds = %21
  %22 = invoke noundef nonnull align 8 dereferenceable(32) ptr @_ZNSt7__cxx1112basic_stringIcSt11char_traitsIcESaIcEE6appendERKS4_(ptr noundef nonnull align 8 dereferenceable(32) %4, ptr noundef nonnull align 8 dereferenceable(32) %6)
          to label %_ZStplIcSt11char_traitsIcESaIcEENSt7__cxx1112basic_stringIT_T0_T1_EERKS8_SA_.exit unwind label %23

23:                                               ; preds = %.noexc
  %24 = landingpad { ptr, i32 }
          cleanup
  call void @_ZNSt7__cxx1112basic_stringIcSt11char_traitsIcESaIcEED1Ev(ptr noundef nonnull align 8 dereferenceable(32) %4) #26
  br label %.body

_ZStplIcSt11char_traitsIcESaIcEENSt7__cxx1112basic_stringIT_T0_T1_EERKS8_SA_.exit: ; preds = %.noexc
  invoke void @_ZNK35colvarbias_restraint_centers_moving16get_state_paramsB5cxx11Ev(ptr dead_on_unwind nonnull writable sret(%"class.std::__cxx11::basic_string") align 8 %7, ptr noundef nonnull align 8 dereferenceable(81) %1)
          to label %25 unwind label %36

25:                                               ; preds = %_ZStplIcSt11char_traitsIcESaIcEENSt7__cxx1112basic_stringIT_T0_T1_EERKS8_SA_.exit
  %26 = invoke noundef nonnull align 8 dereferenceable(32) ptr @_ZNSt7__cxx1112basic_stringIcSt11char_traitsIcESaIcEE6appendERKS4_(ptr noundef nonnull align 8 dereferenceable(32) %4, ptr noundef nonnull align 8 dereferenceable(32) %7)
          to label %27 unwind label %38

27:                                               ; preds = %25
  call void @_ZNSt7__cxx1112basic_stringIcSt11char_traitsIcESaIcEEC1EOS4_(ptr noundef nonnull align 8 dereferenceable(32) %3, ptr noundef nonnull align 8 dereferenceable(32) %26) #26
  %28 = getelementptr inbounds i8, ptr %1, i64 88
  invoke void @_ZNK29colvarbias_restraint_k_moving16get_state_paramsB5cxx11Ev(ptr dead_on_unwind nonnull writable sret(%"class.std::__cxx11::basic_string") align 8 %8, ptr noundef nonnull align 8 dereferenceable(56) %28)
          to label %29 unwind label %40

29:                                               ; preds = %27
  %30 = invoke noundef nonnull align 8 dereferenceable(32) ptr @_ZNSt7__cxx1112basic_stringIcSt11char_traitsIcESaIcEE6appendERKS4_(ptr noundef nonnull align 8 dereferenceable(32) %3, ptr noundef nonnull align 8 dereferenceable(32) %8)
          to label %31 unwind label %42

31:                                               ; preds = %29
  call void @_ZNSt7__cxx1112basic_stringIcSt11char_traitsIcESaIcEEC1EOS4_(ptr noundef nonnull align 8 dereferenceable(32) %0, ptr noundef nonnull align 8 dereferenceable(32) %30) #26
  call void @_ZNSt7__cxx1112basic_stringIcSt11char_traitsIcESaIcEED1Ev(ptr noundef nonnull align 8 dereferenceable(32) %8) #26
  call void @_ZNSt7__cxx1112basic_stringIcSt11char_traitsIcESaIcEED1Ev(ptr noundef nonnull align 8 dereferenceable(32) %3) #26
  call void @_ZNSt7__cxx1112basic_stringIcSt11char_traitsIcESaIcEED1Ev(ptr noundef nonnull align 8 dereferenceable(32) %7) #26
  call void @_ZNSt7__cxx1112basic_stringIcSt11char_traitsIcESaIcEED1Ev(ptr noundef nonnull align 8 dereferenceable(32) %4) #26
  call void @_ZNSt7__cxx1112basic_stringIcSt11char_traitsIcESaIcEED1Ev(ptr noundef nonnull align 8 dereferenceable(32) %6) #26
  call void @_ZNSt7__cxx1112basic_stringIcSt11char_traitsIcESaIcEED1Ev(ptr noundef nonnull align 8 dereferenceable(32) %5) #26
  ret void

32:                                               ; preds = %2
  %33 = landingpad { ptr, i32 }
          cleanup
  br label %47

34:                                               ; preds = %21
  %35 = landingpad { ptr, i32 }
          cleanup
  br label %.body

36:                                               ; preds = %_ZStplIcSt11char_traitsIcESaIcEENSt7__cxx1112basic_stringIT_T0_T1_EERKS8_SA_.exit
  %37 = landingpad { ptr, i32 }
          cleanup
  br label %46

38:                                               ; preds = %25
  %39 = landingpad { ptr, i32 }
          cleanup
  br label %45

40:                                               ; preds = %27
  %41 = landingpad { ptr, i32 }
          cleanup
  br label %44

42:                                               ; preds = %29
  %43 = landingpad { ptr, i32 }
          cleanup
  call void @_ZNSt7__cxx1112basic_stringIcSt11char_traitsIcESaIcEED1Ev(ptr noundef nonnull align 8 dereferenceable(32) %8) #26
  br label %44

44:                                               ; preds = %42, %40
  %.pn = phi { ptr, i32 } [ %43, %42 ], [ %41, %40 ]
  call void @_ZNSt7__cxx1112basic_stringIcSt11char_traitsIcESaIcEED1Ev(ptr noundef nonnull align 8 dereferenceable(32) %3) #26
  br label %45

45:                                               ; preds = %44, %38
  %.pn.pn = phi { ptr, i32 } [ %.pn, %44 ], [ %39, %38 ]
  call void @_ZNSt7__cxx1112basic_stringIcSt11char_traitsIcESaIcEED1Ev(ptr noundef nonnull align 8 dereferenceable(32) %7) #26
  br label %46

46:                                               ; preds = %45, %36
  %.pn.pn.pn = phi { ptr, i32 } [ %.pn.pn, %45 ], [ %37, %36 ]
  call void @_ZNSt7__cxx1112basic_stringIcSt11char_traitsIcESaIcEED1Ev(ptr noundef nonnull align 8 dereferenceable(32) %4) #26
  br label %.body

.body:                                            ; preds = %34, %23, %46
  %.pn.pn.pn.pn = phi { ptr, i32 } [ %.pn.pn.pn, %46 ], [ %35, %34 ], [ %24, %23 ]
  call void @_ZNSt7__cxx1112basic_stringIcSt11char_traitsIcESaIcEED1Ev(ptr noundef nonnull align 8 dereferenceable(32) %6) #26
  br label %47

47:                                               ; preds = %.body, %32
  %.pn.pn.pn.pn.pn = phi { ptr, i32 } [ %.pn.pn.pn.pn, %.body ], [ %33, %32 ]
  call void @_ZNSt7__cxx1112basic_stringIcSt11char_traitsIcESaIcEED1Ev(ptr noundef nonnull align 8 dereferenceable(32) %5) #26
  resume { ptr, i32 } %.pn.pn.pn.pn.pn
}